Certificate:
    Data:
        Version: 1 (0x0)
        Serial Number: 0 (0x0)
        Signature Algorithm: md5WithRSAEncryption
        Issuer: C=US, ST=Colorado, L=Denver, O=CQG Inc, OU=CQG CA unit
        Validity
            Not Before: Jul 11 20:42:37 2003 GMT
            Not After : Jul 10 20:42:37 2023 GMT
        Subject: C=US, ST=Colorado, L=Denver, O=CQG Inc, OU=CQG CA unit
        Subject Public Key Info:
            Public Key Algorithm: rsaEncryption
            RSA Public Key: (2048 bit)
                modulus:
                    00:c0:1b:b6:4d:a7:6b:d9:aa:95:fd:7f:3c:4e:76:42:
                    a6:aa:56:eb:07:2a:fc:00:97:8b:ab:b4:84:b2:ed:54:
                    49:2a:a5:87:cf:b2:a0:e0:1f:28:80:1b:1a:69:a3:4c:
                    a1:d8:d6:7b:12:20:fc:0e:7c:ee:50:d6:87:b0:1a:b3:
                    94:80:be:69:95:00:68:77:b9:d9:e4:cf:1d:d6:96:13:
                    1d:d8:f5:47:76:b5:b8:84:a9:8a:d4:22:70:78:d7:d4:
                    9f:33:d2:8e:bf:e6:bc:5a:eb:b1:94:88:e8:87:41:65:
                    5e:bd:8d:54:4d:10:76:08:a0:5d:ce:92:fb:8b:f3:25:
                    06:32:e4:f5:70:99:5e:36:d9:2a:27:5d:e7:fa:43:18:
                    1b:3f:19:f3:25:3e:bf:d1:43:65:d9:66:40:3f:f7:f9:
                    96:f7:a5:ed:79:31:cc:81:c2:88:32:77:b3:6c:47:21:
                    5f:ee:86:43:9a:54:9b:c9:8e:c6:39:75:34:43:31:b0:
                    ee:1b:af:f3:33:ff:f3:5e:49:64:bb:16:4a:f7:42:b0:
                    7b:6d:1a:17:c6:d5:54:89:eb:8c:d8:57:6d:a6:e9:54:
                    a0:d9:fb:8a:0d:d9:4e:5f:9c:85:ca:b1:6d:b5:8f:09:
                    2c:f9:fa:64:be:2a:31:7d:7a:c1:48:25:46:32:5f:d2:
                    ab:
                publicExponent:
                    01:00:01:
                privateExponent:
                    00:a8:71:a4:0f:c2:d5:16:2e:35:05:e9:22:7f:c9:c1:
                    f7:51:34:95:2f:db:c8:ca:dc:16:63:a0:0d:1a:b6:6e:
                    49:19:53:bb:19:aa:8e:d4:f5:7d:15:96:ae:3a:22:2d:
                    77:5c:21:f4:17:99:44:69:8f:b1:86:c0:14:89:9d:60:
                    08:be:3a:37:69:a6:c9:f2:f0:ca:d5:8d:a5:a4:1a:42:
                    f8:d0:db:80:a5:de:00:c4:91:c4:60:ed:31:a1:43:dd:
                    f3:1a:05:6d:95:66:43:91:95:48:47:ed:23:b6:34:e9:
                    25:81:1f:02:e3:ef:a3:0f:3d:4e:03:6b:6d:94:f0:c5:
                    6c:7c:c3:92:cd:7e:4b:4c:5b:a6:b5:6f:98:30:aa:c9:
                    3f:7c:66:79:28:1c:fb:66:4b:98:92:dd:f6:d3:a1:96:
                    97:ad:4a:ad:76:82:6d:c7:db:7c:79:ed:27:d8:4a:76:
                    ec:d7:41:5e:1f:0f:be:4e:90:62:14:16:d3:c6:2b:68:
                    8a:70:f4:f9:0e:64:e3:35:4b:8d:ea:51:bc:e6:1e:94:
                    14:4e:64:5d:48:38:9b:46:ae:67:53:12:95:43:bd:cd:
                    db:a1:9a:99:8b:18:47:8b:a8:db:84:72:e2:dd:52:fb:
                    15:76:34:8e:7c:db:bd:fa:76:57:fe:a2:ce:8a:46:1f:
                    81:
                prime2:
                    00:d4:8e:eb:24:71:67:38:16:eb:b7:36:43:bf:b3:2f:
                    b8:51:be:31:ce:5c:57:62:d6:b1:04:bd:f5:e5:d5:25:
                    42:7b:4f:ae:19:6f:96:58:c4:fc:ed:ba:76:33:f3:43:
                    60:62:80:cd:c8:b6:39:70:a1:ad:fb:88:a0:f5:40:d5:
                    d5:1d:d1:77:6b:3d:4a:00:9f:65:95:b3:4c:a4:59:28:
                    96:4f:1e:a3:f9:6e:a9:b6:55:83:17:86:1f:f4:cf:93:
                    e5:9a:bf:30:0b:1c:9f:8c:64:40:7e:03:65:10:a3:9a:
                    e0:25:7f:da:df:c8:55:d3:43:5e:07:25:6f:a4:63:eb:
                    49:
                exponent2:
                    7e:6e:7c:43:73:08:d8:7e:19:bb:22:95:ed:c2:e1:91:
                    9b:5d:ac:36:79:0a:a9:89:d6:45:61:d0:8f:e2:d6:84:
                    d2:e0:34:48:80:ed:46:e3:f5:26:5a:90:d0:99:d3:eb:
                    d2:eb:96:7b:da:98:13:fc:b7:86:34:60:b9:40:d5:70:
                    2c:8a:59:a3:fa:12:b8:88:17:5e:92:05:f6:83:e9:f6:
                    6e:1d:65:9f:8a:49:7c:61:24:d6:ab:3a:fa:dd:35:b5:
                    8e:f4:45:d9:76:2f:18:cc:d0:e7:a3:91:4b:f2:64:bf:
                    0a:cf:20:1b:98:08:24:df:9f:60:54:ce:31:54:15:b1:
                prime1:
                    00:e7:5e:d8:5c:8b:a5:42:f1:34:0f:e6:49:f3:c4:b7:
                    9f:06:b5:14:47:7f:10:7e:5c:2c:b1:a1:4c:29:a0:e9:
                    ac:2d:7d:cb:9c:6a:fb:6a:6b:54:a4:f5:8a:bf:6d:6c:
                    a1:a4:fa:23:74:1c:0f:bd:f8:75:fd:72:a7:0f:ee:70:
                    27:06:ec:96:7f:be:69:cf:80:b6:2a:57:97:9c:62:c4:
                    6f:1a:61:2f:f5:a5:ce:26:0c:83:6b:aa:74:68:6b:6e:
                    93:55:3b:bb:51:3e:41:d2:41:78:2b:5d:22:7b:68:b3:
                    dd:e9:da:7e:d0:66:cc:a2:09:1d:ce:3a:1f:21:4c:3a:
                    53:
                exponent1:
                    00:e3:9d:39:ea:e9:72:7e:45:be:3a:fa:09:bc:a7:c5:
                    20:cc:3f:6e:20:dc:0f:04:d0:77:23:94:93:d1:cc:3c:
                    b5:a6:d7:3f:6c:b5:0e:7b:65:f5:92:87:00:a5:4b:e7:
                    f7:a9:ce:6e:fc:75:f2:c2:a7:e0:a3:a2:9c:59:9e:ef:
                    74:65:6a:70:b0:61:49:c4:da:51:db:9b:ea:49:ee:1c:
                    63:54:a7:51:c0:2f:0a:7c:02:09:73:ec:ef:b2:1e:26:
                    5d:09:17:c7:32:a8:b5:a6:3b:c4:15:9c:fd:24:3d:1f:
                    dd:eb:86:89:05:4a:6c:7b:e7:ce:0b:a8:c0:21:48:d5:
                    83:
                coefficient:
                    00:b8:e3:ad:b9:90:b3:87:52:53:76:5d:26:d6:86:52:
                    a8:04:29:3c:71:88:33:f3:47:2e:c2:19:42:e4:26:c2:
                    ab:68:1a:59:82:65:f8:be:5d:a3:bf:9d:f6:7f:24:ca:
                    29:df:97:80:08:44:24:a0:a2:25:17:dd:ce:35:c6:a4:
                    e7:77:a7:01:2f:8d:81:fe:e2:79:d1:15:49:48:70:c0:
                    e3:d4:b4:14:d2:62:a8:d3:2e:b4:a6:44:27:b8:ed:c9:
                    3b:a7:8b:07:88:5d:a6:3a:e2:66:a0:7d:5e:1b:e1:39:
                    68:8a:2c:20:37:78:44:8c:f9:0e:7a:cb:1e:69:d0:5f:
                    e8:
    Signature Algorithm: md5WithRSAEncryption
        64:8c:3c:8a:0f:9d:a4:d4:ae:1c:9e:bb:c7:5b:a8:3e:19:47:
        42:1b:23:2b:97:ea:9e:f9:ce:a7:a4:af:3b:a0:da:31:5a:65:
        d0:78:30:e5:92:db:4e:83:67:94:e0:62:08:90:87:cd:d7:3a:
        2a:54:4b:00:54:df:88:18:ed:dc:14:c2:e2:3d:60:98:2c:ae:
        77:88:b7:a4:f3:03:41:60:d3:61:0c:32:6b:3d:5f:29:fc:35:
        2d:6c:29:5e:61:79:25:f1:39:61:e3:42:73:92:68:74:98:10:
        6b:31:bb:30:8e:0e:6a:f4:53:f1:ec:a4:2a:da:59:19:41:80:
        a9:9a:fe:9d:eb:7f:98:ea:33:f0:00:d3:a8:1e:b7:2c:ea:97:
        f3:09:6d:24:6c:77:11:48:ba:0d:8d:78:6f:c9:71:03:f5:0a:
        b7:41:0e:3a:f6:3c:c8:41:22:27:bb:0c:1a:d4:2e:0d:57:56:
        c2:9d:89:c1:00:ac:7e:e8:aa:3e:13:98:ab:0a:93:e7:3f:0a:
        35:c5:79:82:aa:68:dd:f1:fb:1a:ca:c9:e7:55:9b:79:6d:15:
        77:98:25:75:2c:7e:d6:15:1b:a5:60:78:31:ed:ba:7e:29:31:
        4c:96:fd:cf:26:5d:7f:06:1a:08:50:2b:a5:84:38:ca:43:97:
        ca:d5:85:54
-----BEGIN CERTIFICATE-----
MIIDJjCCAg4CAQAwDQYJKoZIhvcNAQEEBQAwWTELMAkGA1UEBhMCVVMxETAPBgNV
BAgTCENvbG9yYWRvMQ8wDQYDVQQHEwZEZW52ZXIxEDAOBgNVBAoTB0NRRyBJbmMx
FDASBgNVBAsTC0NRRyBDQSB1bml0MB4XDTAzMDcxMTIwNDIzN1oXDTIzMDcxMDIw
NDIzN1owWTELMAkGA1UEBhMCVVMxETAPBgNVBAgTCENvbG9yYWRvMQ8wDQYDVQQH
EwZEZW52ZXIxEDAOBgNVBAoTB0NRRyBJbmMxFDASBgNVBAsTC0NRRyBDQSB1bml0
MIIBIjANBgkqhkiG9w0BAQEFAAOCAQ8AMIIBCgKCAQEAwBu2Tadr2aqV/X88TnZC
pqpW6wcq/ACXi6u0hLLtVEkqpYfPsqDgHyiAGxppo0yh2NZ7EiD8DnzuUNaHsBqz
lIC+aZUAaHe52eTPHdaWEx3Y9Ud2tbiEqYrUInB419SfM9KOv+a8WuuxlIjoh0Fl
Xr2NVE0QdgigXc6S+4vzJQYy5PVwmV422SonXef6QxgbPxnzJT6/0UNl2WZAP/f5
lvel7XkxzIHCiDJ3s2xHIV/uhkOaVJvJjsY5dTRDMbDuG6/zM//zXklkuxZK90Kw
e20aF8bVVInrjNhXbabpVKDZ+4oN2U5fnIXKsW21jwks+fpkvioxfXrBSCVGMl/S
qwIDAQABMA0GCSqGSIb3DQEBBAUAA4IBAQBkjDyKD52k1K4cnrvHW6g+GUdCGyMr
l+qe+c6npK87oNoxWmXQeDDlkttOg2eU4GIIkIfN1zoqVEsAVN+IGO3cFMLiPWCY
LK53iLek8wNBYNNhDDJrPV8p/DUtbCleYXkl8Tlh40Jzkmh0mBBrMbswjg5q9FPx
7KQq2lkZQYCpmv6d63+Y6jPwANOoHrcs6pfzCW0kbHcRSLoNjXhvyXED9Qq3QQ46
9jzIQSInuwwa1C4NV1bCnYnBAKx+6Ko+E5irCpPnPwo1xXmCqmjd8fsaysnnVZt5
bRV3mCV1LH7WFRulYHgx7bp+KTFMlv3PJl1/BhoIUCulhDjKQ5fK1YVU
-----END CERTIFICATE-----
